; Function Attrs: mustprogress nounwind uwtable
define dso_local noundef nonnull align 8 dereferenceable(8) ptr @_ZN9StockfishlsERSoNS_8SyncCoutE(ptr noundef nonnull readnone returned align 8 dereferenceable(8) %0, i32 noundef %1) local_unnamed_addr #3 {
  switch i32 %1, label %_ZNSt5mutex4lockEv.exit [
    i32 0, label %3
    i32 1, label %6
  ]

3:                                                ; preds = %2
  %4 = tail call noundef i32 @pthread_mutex_lock(ptr noundef nonnull @_ZZN9StockfishlsERSoNS_8SyncCoutEE1m) #21
  %.not.i = icmp eq i32 %4, 0
  br i1 %.not.i, label %_ZNSt5mutex4lockEv.exit, label %5

5:                                                ; preds = %3
  tail call void @_ZSt20__throw_system_errori(i32 noundef %4) #22
  unreachable

6:                                                ; preds = %2
  %7 = tail call noundef i32 @pthread_mutex_unlock(ptr noundef nonnull @_ZZN9StockfishlsERSoNS_8SyncCoutEE1m) #21
  br label %_ZNSt5mutex4lockEv.exit

_ZNSt5mutex4lockEv.exit:                          ; preds = %3, %2, %6
  ret ptr %0
}